; ModuleID = '46/467.c'
source_filename = "46/467.c"
target datalayout = "e-m:e-p270:32:32-p271:32:32-p272:64:64-i64:64-f80:128-n8:16:32:64-S128"
target triple = "x86_64-pc-linux-gnu"

@.str = private unnamed_addr constant [6 x i8] c"%d %d\00", align 1
@.str.1 = private unnamed_addr constant [3 x i8] c"%d\00", align 1
@.str.2 = private unnamed_addr constant [4 x i8] c"%d\0A\00", align 1

; Function Attrs: noinline nounwind uwtable
define dso_local i32 @main() #0 {
  %1 = alloca i32, align 4
  %2 = alloca [100 x [100 x i32]], align 16
  %3 = alloca i32, align 4
  %4 = alloca i32, align 4
  %5 = alloca i32, align 4
  %6 = alloca i32, align 4
  %7 = alloca i32, align 4
  %8 = alloca i32, align 4
  %9 = alloca i32, align 4
  %10 = alloca i32, align 4
  %11 = alloca i32, align 4
  %12 = alloca i32, align 4
  store i32 0, i32* %1, align 4
  %13 = call i32 (i8*, ...) @__isoc99_scanf(i8* getelementptr inbounds ([6 x i8], [6 x i8]* @.str, i64 0, i64 0), i32* %3, i32* %4)
  store i32 0, i32* %5, align 4
  br label %14

14:                                               ; preds = %35, %0
  %15 = load i32, i32* %5, align 4
  %16 = load i32, i32* %3, align 4
  %17 = icmp slt i32 %15, %16
  br i1 %17, label %18, label %38

18:                                               ; preds = %14
  store i32 0, i32* %6, align 4
  br label %19

19:                                               ; preds = %31, %18
  %20 = load i32, i32* %6, align 4
  %21 = load i32, i32* %4, align 4
  %22 = icmp slt i32 %20, %21
  br i1 %22, label %23, label %34

23:                                               ; preds = %19
  %24 = load i32, i32* %5, align 4
  %25 = sext i32 %24 to i64
  %26 = getelementptr inbounds [100 x [100 x i32]], [100 x [100 x i32]]* %2, i64 0, i64 %25
  %27 = load i32, i32* %6, align 4
  %28 = sext i32 %27 to i64
  %29 = getelementptr inbounds [100 x i32], [100 x i32]* %26, i64 0, i64 %28
  %30 = call i32 (i8*, ...) @__isoc99_scanf(i8* getelementptr inbounds ([3 x i8], [3 x i8]* @.str.1, i64 0, i64 0), i32* %29)
  br label %31

31:                                               ; preds = %23
  %32 = load i32, i32* %6, align 4
  %33 = add nsw i32 %32, 1
  store i32 %33, i32* %6, align 4
  br label %19

34:                                               ; preds = %19
  br label %35

35:                                               ; preds = %34
  %36 = load i32, i32* %5, align 4
  %37 = add nsw i32 %36, 1
  store i32 %37, i32* %5, align 4
  br label %14

38:                                               ; preds = %14
  store i32 0, i32* %7, align 4
  %39 = load i32, i32* %3, align 4
  %40 = sub nsw i32 %39, 1
  store i32 %40, i32* %8, align 4
  store i32 0, i32* %9, align 4
  %41 = load i32, i32* %4, align 4
  %42 = sub nsw i32 %41, 1
  store i32 %42, i32* %10, align 4
  br label %43

43:                                               ; preds = %129, %38
  %44 = load i32, i32* %7, align 4
  %45 = load i32, i32* %8, align 4
  %46 = icmp slt i32 %44, %45
  br i1 %46, label %47, label %51

47:                                               ; preds = %43
  %48 = load i32, i32* %9, align 4
  %49 = load i32, i32* %10, align 4
  %50 = icmp slt i32 %48, %49
  br label %51

51:                                               ; preds = %47, %43
  %52 = phi i1 [ false, %43 ], [ %50, %47 ]
  br i1 %52, label %53, label %138

53:                                               ; preds = %51
  %54 = load i32, i32* %9, align 4
  store i32 %54, i32* %11, align 4
  br label %55

55:                                               ; preds = %69, %53
  %56 = load i32, i32* %11, align 4
  %57 = load i32, i32* %10, align 4
  %58 = sub nsw i32 %57, 1
  %59 = icmp sle i32 %56, %58
  br i1 %59, label %60, label %72

60:                                               ; preds = %55
  %61 = load i32, i32* %7, align 4
  %62 = sext i32 %61 to i64
  %63 = getelementptr inbounds [100 x [100 x i32]], [100 x [100 x i32]]* %2, i64 0, i64 %62
  %64 = load i32, i32* %11, align 4
  %65 = sext i32 %64 to i64
  %66 = getelementptr inbounds [100 x i32], [100 x i32]* %63, i64 0, i64 %65
  %67 = load i32, i32* %66, align 4
  %68 = call i32 (i8*, ...) @printf(i8* getelementptr inbounds ([4 x i8], [4 x i8]* @.str.2, i64 0, i64 0), i32 %67)
  br label %69

69:                                               ; preds = %60
  %70 = load i32, i32* %11, align 4
  %71 = add nsw i32 %70, 1
  store i32 %71, i32* %11, align 4
  br label %55

72:                                               ; preds = %55
  %73 = load i32, i32* %7, align 4
  store i32 %73, i32* %12, align 4
  br label %74

74:                                               ; preds = %88, %72
  %75 = load i32, i32* %12, align 4
  %76 = load i32, i32* %8, align 4
  %77 = sub nsw i32 %76, 1
  %78 = icmp sle i32 %75, %77
  br i1 %78, label %79, label %91

79:                                               ; preds = %74
  %80 = load i32, i32* %12, align 4
  %81 = sext i32 %80 to i64
  %82 = getelementptr inbounds [100 x [100 x i32]], [100 x [100 x i32]]* %2, i64 0, i64 %81
  %83 = load i32, i32* %10, align 4
  %84 = sext i32 %83 to i64
  %85 = getelementptr inbounds [100 x i32], [100 x i32]* %82, i64 0, i64 %84
  %86 = load i32, i32* %85, align 4
  %87 = call i32 (i8*, ...) @printf(i8* getelementptr inbounds ([4 x i8], [4 x i8]* @.str.2, i64 0, i64 0), i32 %86)
  br label %88

88:                                               ; preds = %79
  %89 = load i32, i32* %12, align 4
  %90 = add nsw i32 %89, 1
  store i32 %90, i32* %12, align 4
  br label %74

91:                                               ; preds = %74
  %92 = load i32, i32* %10, align 4
  store i32 %92, i32* %11, align 4
  br label %93

93:                                               ; preds = %107, %91
  %94 = load i32, i32* %11, align 4
  %95 = load i32, i32* %9, align 4
  %96 = add nsw i32 %95, 1
  %97 = icmp sge i32 %94, %96
  br i1 %97, label %98, label %110

98:                                               ; preds = %93
  %99 = load i32, i32* %8, align 4
  %100 = sext i32 %99 to i64
  %101 = getelementptr inbounds [100 x [100 x i32]], [100 x [100 x i32]]* %2, i64 0, i64 %100
  %102 = load i32, i32* %11, align 4
  %103 = sext i32 %102 to i64
  %104 = getelementptr inbounds [100 x i32], [100 x i32]* %101, i64 0, i64 %103
  %105 = load i32, i32* %104, align 4
  %106 = call i32 (i8*, ...) @printf(i8* getelementptr inbounds ([4 x i8], [4 x i8]* @.str.2, i64 0, i64 0), i32 %105)
  br label %107

107:                                              ; preds = %98
  %108 = load i32, i32* %11, align 4
  %109 = add nsw i32 %108, -1
  store i32 %109, i32* %11, align 4
  br label %93

110:                                              ; preds = %93
  %111 = load i32, i32* %8, align 4
  store i32 %111, i32* %12, align 4
  br label %112

112:                                              ; preds = %126, %110
  %113 = load i32, i32* %12, align 4
  %114 = load i32, i32* %7, align 4
  %115 = add nsw i32 %114, 1
  %116 = icmp sge i32 %113, %115
  br i1 %116, label %117, label %129

117:                                              ; preds = %112
  %118 = load i32, i32* %12, align 4
  %119 = sext i32 %118 to i64
  %120 = getelementptr inbounds [100 x [100 x i32]], [100 x [100 x i32]]* %2, i64 0, i64 %119
  %121 = load i32, i32* %9, align 4
  %122 = sext i32 %121 to i64
  %123 = getelementptr inbounds [100 x i32], [100 x i32]* %120, i64 0, i64 %122
  %124 = load i32, i32* %123, align 4
  %125 = call i32 (i8*, ...) @printf(i8* getelementptr inbounds ([4 x i8], [4 x i8]* @.str.2, i64 0, i64 0), i32 %124)
  br label %126

126:                                              ; preds = %117
  %127 = load i32, i32* %12, align 4
  %128 = add nsw i32 %127, -1
  store i32 %128, i32* %12, align 4
  br label %112

129:                                              ; preds = %112
  %130 = load i32, i32* %9, align 4
  %131 = add nsw i32 %130, 1
  store i32 %131, i32* %9, align 4
  %132 = load i32, i32* %10, align 4
  %133 = add nsw i32 %132, -1
  store i32 %133, i32* %10, align 4
  %134 = load i32, i32* %7, align 4
  %135 = add nsw i32 %134, 1
  store i32 %135, i32* %7, align 4
  %136 = load i32, i32* %8, align 4
  %137 = add nsw i32 %136, -1
  store i32 %137, i32* %8, align 4
  br label %43

138:                                              ; preds = %51
  %139 = load i32, i32* %8, align 4
  %140 = load i32, i32* %7, align 4
  %141 = icmp eq i32 %139, %140
  br i1 %141, label %142, label %161

142:                                              ; preds = %138
  %143 = load i32, i32* %9, align 4
  store i32 %143, i32* %11, align 4
  br label %144

144:                                              ; preds = %157, %142
  %145 = load i32, i32* %11, align 4
  %146 = load i32, i32* %10, align 4
  %147 = icmp sle i32 %145, %146
  br i1 %147, label %148, label %160

148:                                              ; preds = %144
  %149 = load i32, i32* %8, align 4
  %150 = sext i32 %149 to i64
  %151 = getelementptr inbounds [100 x [100 x i32]], [100 x [100 x i32]]* %2, i64 0, i64 %150
  %152 = load i32, i32* %11, align 4
  %153 = sext i32 %152 to i64
  %154 = getelementptr inbounds [100 x i32], [100 x i32]* %151, i64 0, i64 %153
  %155 = load i32, i32* %154, align 4
  %156 = call i32 (i8*, ...) @printf(i8* getelementptr inbounds ([4 x i8], [4 x i8]* @.str.2, i64 0, i64 0), i32 %155)
  br label %157

157:                                              ; preds = %148
  %158 = load i32, i32* %11, align 4
  %159 = add nsw i32 %158, 1
  store i32 %159, i32* %11, align 4
  br label %144

160:                                              ; preds = %144
  br label %185

161:                                              ; preds = %138
  %162 = load i32, i32* %7, align 4
  %163 = load i32, i32* %10, align 4
  %164 = icmp eq i32 %162, %163
  br i1 %164, label %165, label %184

165:                                              ; preds = %161
  %166 = load i32, i32* %7, align 4
  store i32 %166, i32* %12, align 4
  br label %167

167:                                              ; preds = %180, %165
  %168 = load i32, i32* %12, align 4
  %169 = load i32, i32* %8, align 4
  %170 = icmp sle i32 %168, %169
  br i1 %170, label %171, label %183

171:                                              ; preds = %167
  %172 = load i32, i32* %12, align 4
  %173 = sext i32 %172 to i64
  %174 = getelementptr inbounds [100 x [100 x i32]], [100 x [100 x i32]]* %2, i64 0, i64 %173
  %175 = load i32, i32* %10, align 4
  %176 = sext i32 %175 to i64
  %177 = getelementptr inbounds [100 x i32], [100 x i32]* %174, i64 0, i64 %176
  %178 = load i32, i32* %177, align 4
  %179 = call i32 (i8*, ...) @printf(i8* getelementptr inbounds ([4 x i8], [4 x i8]* @.str.2, i64 0, i64 0), i32 %178)
  br label %180

180:                                              ; preds = %171
  %181 = load i32, i32* %12, align 4
  %182 = add nsw i32 %181, 1
  store i32 %182, i32* %12, align 4
  br label %167

183:                                              ; preds = %167
  br label %184

184:                                              ; preds = %183, %161
  br label %185

185:                                              ; preds = %184, %160
  ret i32 0
}

declare dso_local i32 @__isoc99_scanf(i8*, ...) #1

declare dso_local i32 @printf(i8*, ...) #1


!llvm.module.flags = !{!0}
!llvm.ident = !{!1}

!0 = !{i32 1, !"wchar_size", i32 4}
!1 = !{!"clang version 10.0.0-4ubuntu1 "}
